; Function Attrs: mustprogress nounwind uwtable
define hidden noundef zeroext i1 @_ZNK9JfrBuffer16acquired_by_selfEv(ptr noundef nonnull align 8 dereferenceable(48) %0) local_unnamed_addr #1 align 2 {
  %2 = tail call align 8 ptr @llvm.threadlocal.address.p0(ptr align 8 @_ZN6Thread12_thr_currentE)
  %3 = load ptr, ptr %2, align 8
  %4 = getelementptr inbounds i8, ptr %0, i64 8
  %5 = load volatile ptr, ptr %4, align 8
  tail call void asm sideeffect "", "~{memory},~{dirflag},~{fpsr},~{flags}"() #6, !srcloc !6
  %6 = icmp eq ptr %5, %3
  ret i1 %6
}